; Function Attrs: mustprogress uwtable
define dso_local void @_ZN4absl18container_internal31SetHashtablezMaxSamplesInternalEm(i64 noundef %0) local_unnamed_addr #0 personality ptr @__gxx_personality_v0 {
  %.not = icmp eq i64 %0, 0
  br i1 %.not, label %11, label %2

2:                                                ; preds = %1
  %3 = load atomic i8, ptr @_ZGVZN4absl18container_internal23GlobalHashtablezSamplerEvE7sampler acquire, align 8
  %4 = icmp eq i8 %3, 0
  br i1 %4, label %5, label %_ZN4absl18container_internal23GlobalHashtablezSamplerEv.exit, !prof !4

5:                                                ; preds = %2
  %6 = tail call i32 @__cxa_guard_acquire(ptr nonnull @_ZGVZN4absl18container_internal23GlobalHashtablezSamplerEvE7sampler) #13
  %.not.i = icmp eq i32 %6, 0
  br i1 %.not.i, label %_ZN4absl18container_internal23GlobalHashtablezSamplerEv.exit, label %7

7:                                                ; preds = %5
  invoke void @_ZN4absl12NoDestructorINS_18profiling_internal14SampleRecorderINS_18container_internal14HashtablezInfoEEEEC2IJETnNSt9enable_ifIXntsr3std7is_sameIFvDpRNSt5decayIT_E4typeEEFvRS6_EEE5valueEiE4typeELi0EEEDpOSA_(ptr noundef nonnull align 8 dereferenceable(712) @_ZZN4absl18container_internal23GlobalHashtablezSamplerEvE7sampler)
          to label %8 unwind label %9

8:                                                ; preds = %7
  tail call void @__cxa_guard_release(ptr nonnull @_ZGVZN4absl18container_internal23GlobalHashtablezSamplerEvE7sampler) #13
  br label %_ZN4absl18container_internal23GlobalHashtablezSamplerEv.exit

9:                                                ; preds = %7
  %10 = landingpad { ptr, i32 }
          cleanup
  tail call void @__cxa_guard_abort(ptr nonnull @_ZGVZN4absl18container_internal23GlobalHashtablezSamplerEvE7sampler) #13
  resume { ptr, i32 } %10

_ZN4absl18container_internal23GlobalHashtablezSamplerEv.exit: ; preds = %2, %5, %8
  store atomic i64 %0, ptr getelementptr inbounds nuw (i8, ptr @_ZZN4absl18container_internal23GlobalHashtablezSamplerEvE7sampler, i64 16) release, align 8
  br label %12

11:                                               ; preds = %1
  tail call void (i32, ptr, i32, ptr, ...) @_ZN4absl16raw_log_internal6RawLogENS_11LogSeverityEPKciS3_z(i32 noundef 2, ptr noundef nonnull getelementptr inbounds nuw (i8, ptr @.str, i64 123), i32 noundef 314, ptr noundef nonnull @.str.2)
  br label %12

12:                                               ; preds = %11, %_ZN4absl18container_internal23GlobalHashtablezSamplerEv.exit
  ret void
}